target datalayout = "e-m:e-p270:32:32-p271:32:32-p272:64:64-i64:64-i128:128-f80:128-n8:16:32:64-S128"
target triple = "x86_64-pc-linux-gnu"

%"class.std::vector" = type { %"struct.std::_Vector_base" }
%"struct.std::_Vector_base" = type { %"struct.std::_Vector_base<std::__cxx11::basic_string<char>, std::allocator<std::__cxx11::basic_string<char>>>::_Vector_impl" }
%"struct.std::_Vector_base<std::__cxx11::basic_string<char>, std::allocator<std::__cxx11::basic_string<char>>>::_Vector_impl" = type { %"struct.std::_Vector_base<std::__cxx11::basic_string<char>, std::allocator<std::__cxx11::basic_string<char>>>::_Vector_impl_data" }
%"struct.std::_Vector_base<std::__cxx11::basic_string<char>, std::allocator<std::__cxx11::basic_string<char>>>::_Vector_impl_data" = type { ptr, ptr, ptr }
%"class.std::__cxx11::basic_string" = type { %"struct.std::__cxx11::basic_string<char>::_Alloc_hider", i64, %union.anon }
%"struct.std::__cxx11::basic_string<char>::_Alloc_hider" = type { ptr }
%union.anon = type { i64, [8 x i8] }
%"struct.std::_Rb_tree_key_compare" = type { %"struct.std::less" }
%"struct.std::less" = type { i8 }
%"struct.std::_Rb_tree_header" = type { %"struct.std::_Rb_tree_node_base", i64 }
%"struct.std::_Rb_tree_node_base" = type { i32, ptr, ptr, ptr }
%"class.casadi::Feasiblesqpmethod" = type { %"class.casadi::Nlpsol", %"struct.casadi::casadi_feasiblesqpmethod_prob", %"class.casadi::Function", %"class.casadi::Function", i8, i8, i8, i64, i64, i64, i64, i64, double, double, i8, i8, i8, i8, %"class.casadi::Sparsity", %"class.casadi::Sparsity", %"struct.casadi::ConvexifyData", i8, double, double, double, double, double, double, double, double, double, double, double, %"class.std::vector.52", double, i64, i64 }
%"class.casadi::Nlpsol" = type { %"class.casadi::OracleFunction", %"class.casadi::PluginInterface", %"struct.casadi::casadi_nlpsol_prob", i64, i64, i64, %"class.casadi::Function", i64, %"class.std::__cxx11::basic_string", %"class.std::map.28", %"class.std::vector.44", %"class.casadi::Function", %"class.std::vector.46", %"class.std::vector.46", i8, i8, i8, i8, i8, i8, i8, i8, i8, double, i8, %"class.std::vector.19", i8, %"class.casadi::WeakRef" }
%"class.casadi::OracleFunction" = type { %"class.casadi::FunctionInternal", %"class.casadi::Function", %"class.std::map.28", %"class.std::map.28", i8, i32, %"class.std::map.39", %"class.std::vector", i64, i64, i64, i64 }
%"class.casadi::FunctionInternal" = type { %"class.casadi::ProtoFunction", i8, i8, i64, i64, %"class.std::vector.19", %"class.std::vector.19", %"class.std::vector.23", %"class.std::vector.23", %"class.std::vector", %"class.std::vector", i8, i8, %"class.std::__cxx11::basic_string", %"class.std::__cxx11::basic_string", %"class.std::__cxx11::basic_string", i8, ptr, ptr, ptr, %"class.std::map.28", i8, %"class.std::map.28", %"class.std::map.33", [2 x %"class.std::vector.23"], %"class.casadi::Function", ptr, %"class.std::__cxx11::basic_string", %"class.casadi::Importer", %"class.std::map.28", double, i8, i8, i8, i8, i8, i8, i8, i8, double, double, i64, i8, %"class.std::map.28", double, %"class.std::__cxx11::basic_string", i8, i8, i64, i8, i8, i8, %"class.std::__cxx11::basic_string", %"class.std::__cxx11::basic_string", %"class.std::map.28", %"class.std::map.28", %"class.std::map.28", %"class.std::map.28", %"class.casadi::Function", i64, i64, i64, i64, i64, i64, i64, i64, i64 }
%"class.casadi::ProtoFunction" = type { %"class.casadi::SharedObjectInternal", %"class.std::__cxx11::basic_string", i8, i8, i8, i8, i8, %"class.std::vector.11", %"class.std::stack" }
%"class.casadi::SharedObjectInternal" = type { ptr, i64, ptr }
%"class.std::vector.11" = type { %"struct.std::_Vector_base.12" }
%"struct.std::_Vector_base.12" = type { %"struct.std::_Vector_base<void *, std::allocator<void *>>::_Vector_impl" }
%"struct.std::_Vector_base<void *, std::allocator<void *>>::_Vector_impl" = type { %"struct.std::_Vector_base<void *, std::allocator<void *>>::_Vector_impl_data" }
%"struct.std::_Vector_base<void *, std::allocator<void *>>::_Vector_impl_data" = type { ptr, ptr, ptr }
%"class.std::stack" = type { %"class.std::deque" }
%"class.std::deque" = type { %"class.std::_Deque_base" }
%"class.std::_Deque_base" = type { %"struct.std::_Deque_base<int, std::allocator<int>>::_Deque_impl" }
%"struct.std::_Deque_base<int, std::allocator<int>>::_Deque_impl" = type { %"struct.std::_Deque_base<int, std::allocator<int>>::_Deque_impl_data" }
%"struct.std::_Deque_base<int, std::allocator<int>>::_Deque_impl_data" = type { ptr, i64, %"struct.std::_Deque_iterator", %"struct.std::_Deque_iterator" }
%"struct.std::_Deque_iterator" = type { ptr, ptr, ptr, ptr }
%"class.std::vector.23" = type { %"struct.std::_Vector_base.24" }
%"struct.std::_Vector_base.24" = type { %"struct.std::_Vector_base<casadi::Sparsity, std::allocator<casadi::Sparsity>>::_Vector_impl" }
%"struct.std::_Vector_base<casadi::Sparsity, std::allocator<casadi::Sparsity>>::_Vector_impl" = type { %"struct.std::_Vector_base<casadi::Sparsity, std::allocator<casadi::Sparsity>>::_Vector_impl_data" }
%"struct.std::_Vector_base<casadi::Sparsity, std::allocator<casadi::Sparsity>>::_Vector_impl_data" = type { ptr, ptr, ptr }
%"class.std::map.33" = type { %"class.std::_Rb_tree.34" }
%"class.std::_Rb_tree.34" = type { %"struct.std::_Rb_tree<std::__cxx11::basic_string<char>, std::pair<const std::__cxx11::basic_string<char>, casadi::WeakRef>, std::_Select1st<std::pair<const std::__cxx11::basic_string<char>, casadi::WeakRef>>, std::less<std::__cxx11::basic_string<char>>>::_Rb_tree_impl" }
%"struct.std::_Rb_tree<std::__cxx11::basic_string<char>, std::pair<const std::__cxx11::basic_string<char>, casadi::WeakRef>, std::_Select1st<std::pair<const std::__cxx11::basic_string<char>, casadi::WeakRef>>, std::less<std::__cxx11::basic_string<char>>>::_Rb_tree_impl" = type { %"struct.std::_Rb_tree_key_compare", %"struct.std::_Rb_tree_header" }
%"class.casadi::Importer" = type { %"class.casadi::SharedObject" }
%"class.casadi::SharedObject" = type { ptr }
%"class.std::map.39" = type { %"class.std::_Rb_tree.40" }
%"class.std::_Rb_tree.40" = type { %"struct.std::_Rb_tree<std::__cxx11::basic_string<char>, std::pair<const std::__cxx11::basic_string<char>, casadi::OracleFunction::RegFun>, std::_Select1st<std::pair<const std::__cxx11::basic_string<char>, casadi::OracleFunction::RegFun>>, std::less<std::__cxx11::basic_string<char>>>::_Rb_tree_impl" }
%"struct.std::_Rb_tree<std::__cxx11::basic_string<char>, std::pair<const std::__cxx11::basic_string<char>, casadi::OracleFunction::RegFun>, std::_Select1st<std::pair<const std::__cxx11::basic_string<char>, casadi::OracleFunction::RegFun>>, std::less<std::__cxx11::basic_string<char>>>::_Rb_tree_impl" = type { %"struct.std::_Rb_tree_key_compare", %"struct.std::_Rb_tree_header" }
%"class.casadi::PluginInterface" = type { ptr }
%"struct.casadi::casadi_nlpsol_prob" = type { i64, i64, i64, %"struct.casadi::casadi_nlpsol_detect_bounds_prob" }
%"struct.casadi::casadi_nlpsol_detect_bounds_prob" = type { i64, i64, i64, i64, i64, i64, ptr, ptr, ptr, ptr, ptr }
%"class.std::map.28" = type { %"class.std::_Rb_tree.29" }
%"class.std::_Rb_tree.29" = type { %"struct.std::_Rb_tree<std::__cxx11::basic_string<char>, std::pair<const std::__cxx11::basic_string<char>, casadi::GenericType>, std::_Select1st<std::pair<const std::__cxx11::basic_string<char>, casadi::GenericType>>, std::less<std::__cxx11::basic_string<char>>>::_Rb_tree_impl" }
%"struct.std::_Rb_tree<std::__cxx11::basic_string<char>, std::pair<const std::__cxx11::basic_string<char>, casadi::GenericType>, std::_Select1st<std::pair<const std::__cxx11::basic_string<char>, casadi::GenericType>>, std::less<std::__cxx11::basic_string<char>>>::_Rb_tree_impl" = type { %"struct.std::_Rb_tree_key_compare", %"struct.std::_Rb_tree_header" }
%"class.std::vector.44" = type { %"struct.std::_Vector_base.45" }
%"struct.std::_Vector_base.45" = type { %"struct.std::_Vector_base<char, std::allocator<char>>::_Vector_impl" }
%"struct.std::_Vector_base<char, std::allocator<char>>::_Vector_impl" = type { %"struct.std::_Vector_base<char, std::allocator<char>>::_Vector_impl_data" }
%"struct.std::_Vector_base<char, std::allocator<char>>::_Vector_impl_data" = type { ptr, ptr, ptr }
%"class.std::vector.46" = type { %"struct.std::_Vector_base.47" }
%"struct.std::_Vector_base.47" = type { %"struct.std::_Vector_base<long long, std::allocator<long long>>::_Vector_impl" }
%"struct.std::_Vector_base<long long, std::allocator<long long>>::_Vector_impl" = type { %"struct.std::_Vector_base<long long, std::allocator<long long>>::_Vector_impl_data" }
%"struct.std::_Vector_base<long long, std::allocator<long long>>::_Vector_impl_data" = type { ptr, ptr, ptr }
%"class.std::vector.19" = type { %"struct.std::_Bvector_base" }
%"struct.std::_Bvector_base" = type { %"struct.std::_Bvector_base<std::allocator<bool>>::_Bvector_impl" }
%"struct.std::_Bvector_base<std::allocator<bool>>::_Bvector_impl" = type { %"struct.std::_Bvector_base<std::allocator<bool>>::_Bvector_impl_data" }
%"struct.std::_Bvector_base<std::allocator<bool>>::_Bvector_impl_data" = type { %"struct.std::_Bit_iterator", %"struct.std::_Bit_iterator", ptr }
%"struct.std::_Bit_iterator" = type { %"struct.std::_Bit_iterator_base.base", [4 x i8] }
%"struct.std::_Bit_iterator_base.base" = type <{ ptr, i32 }>
%"class.casadi::WeakRef" = type { %"class.casadi::SharedObject" }
%"struct.casadi::casadi_feasiblesqpmethod_prob" = type { ptr, ptr, ptr, ptr }
%"class.casadi::Function" = type { %"class.casadi::SharedObject" }
%"class.casadi::Sparsity" = type { %"class.casadi::SharedObject" }
%"struct.casadi::ConvexifyData" = type { %"class.std::vector.46", %"class.std::vector.46", %"class.casadi::Sparsity", %"class.casadi::Sparsity", %"class.casadi::Sparsity", %"struct.casadi::casadi_convexify_config", i64, i64, ptr, ptr }
%"struct.casadi::casadi_convexify_config" = type { i32, i32, ptr, ptr, double, i32, i32, ptr, ptr, i64, i64, i32 }
%"class.std::vector.52" = type { %"struct.std::_Vector_base.53" }
%"struct.std::_Vector_base.53" = type { %"struct.std::_Vector_base<double, std::allocator<double>>::_Vector_impl" }
%"struct.std::_Vector_base<double, std::allocator<double>>::_Vector_impl" = type { %"struct.std::_Vector_base<double, std::allocator<double>>::_Vector_impl_data" }
%"struct.std::_Vector_base<double, std::allocator<double>>::_Vector_impl_data" = type { ptr, ptr, ptr }
%"struct.casadi::FeasiblesqpmethodMemory" = type <{ %"struct.casadi::NlpsolMemory", %"struct.casadi::casadi_feasiblesqpmethod_data", double, double, i64, ptr, i32, [4 x i8] }>
%"struct.casadi::NlpsolMemory" = type { %"struct.casadi::OracleMemory", %"struct.casadi::casadi_nlpsol_data", i64, i8, i32 }
%"struct.casadi::OracleMemory" = type { %"struct.casadi::FunctionMemory", ptr, ptr, ptr, ptr, %"class.std::vector.92" }
%"struct.casadi::FunctionMemory" = type { %"struct.casadi::ProtoFunctionMemory" }
%"struct.casadi::ProtoFunctionMemory" = type { %"class.std::map.87", ptr }
%"class.std::map.87" = type { %"class.std::_Rb_tree.88" }
%"class.std::_Rb_tree.88" = type { %"struct.std::_Rb_tree<std::__cxx11::basic_string<char>, std::pair<const std::__cxx11::basic_string<char>, casadi::FStats>, std::_Select1st<std::pair<const std::__cxx11::basic_string<char>, casadi::FStats>>, std::less<std::__cxx11::basic_string<char>>>::_Rb_tree_impl" }
%"struct.std::_Rb_tree<std::__cxx11::basic_string<char>, std::pair<const std::__cxx11::basic_string<char>, casadi::FStats>, std::_Select1st<std::pair<const std::__cxx11::basic_string<char>, casadi::FStats>>, std::less<std::__cxx11::basic_string<char>>>::_Rb_tree_impl" = type { %"struct.std::_Rb_tree_key_compare", %"struct.std::_Rb_tree_header" }
%"class.std::vector.92" = type { %"struct.std::_Vector_base.93" }
%"struct.std::_Vector_base.93" = type { %"struct.std::_Vector_base<casadi::LocalOracleMemory *, std::allocator<casadi::LocalOracleMemory *>>::_Vector_impl" }
%"struct.std::_Vector_base<casadi::LocalOracleMemory *, std::allocator<casadi::LocalOracleMemory *>>::_Vector_impl" = type { %"struct.std::_Vector_base<casadi::LocalOracleMemory *, std::allocator<casadi::LocalOracleMemory *>>::_Vector_impl_data" }
%"struct.std::_Vector_base<casadi::LocalOracleMemory *, std::allocator<casadi::LocalOracleMemory *>>::_Vector_impl_data" = type { ptr, ptr, ptr }
%"struct.casadi::casadi_nlpsol_data" = type { ptr, ptr, ptr, ptr, ptr, double, ptr, ptr, ptr, ptr, ptr, ptr, ptr, ptr, ptr, ptr, ptr, ptr, ptr, ptr, %"struct.casadi::casadi_nlpsol_detect_bounds_data" }
%"struct.casadi::casadi_nlpsol_detect_bounds_data" = type { ptr, ptr, ptr, ptr, ptr, ptr, ptr, ptr, ptr, ptr }
%"struct.casadi::casadi_feasiblesqpmethod_data" = type { ptr, ptr, ptr, ptr, ptr, ptr, ptr, ptr, ptr, ptr, ptr, ptr, ptr, ptr, ptr, ptr, ptr, ptr, ptr, ptr, ptr, ptr, double }

; Function Attrs: mustprogress nounwind uwtable
define linkonce_odr hidden noundef double @_ZN6casadi10casadi_dotIdEET_xPKS1_S3_(i64 noundef %0, ptr noundef %1, ptr noundef %2) #5 comdat {
  %4 = alloca i64, align 8
  %5 = alloca ptr, align 8
  %6 = alloca ptr, align 8
  %7 = alloca i64, align 8
  %8 = alloca double, align 8
  store i64 %0, ptr %4, align 8
  store ptr %1, ptr %5, align 8
  store ptr %2, ptr %6, align 8
  store double 0.000000e+00, ptr %8, align 8
  store i64 0, ptr %7, align 8
  br label %9

9:                                                ; preds = %22, %3
  %10 = load i64, ptr %7, align 8
  %11 = load i64, ptr %4, align 8
  %12 = icmp slt i64 %10, %11
  br i1 %12, label %13, label %25

13:                                               ; preds = %9
  %14 = load ptr, ptr %5, align 8
  %15 = getelementptr inbounds double, ptr %14, i32 1
  store ptr %15, ptr %5, align 8
  %16 = load double, ptr %14, align 8
  %17 = load ptr, ptr %6, align 8
  %18 = getelementptr inbounds double, ptr %17, i32 1
  store ptr %18, ptr %6, align 8
  %19 = load double, ptr %17, align 8
  %20 = load double, ptr %8, align 8
  %21 = call double @llvm.fmuladd.f64(double %16, double %19, double %20)
  store double %21, ptr %8, align 8
  br label %22

22:                                               ; preds = %13
  %23 = load i64, ptr %7, align 8
  %24 = add nsw i64 %23, 1
  store i64 %24, ptr %7, align 8
  br label %9, !llvm.loop !7

25:                                               ; preds = %9
  %26 = load double, ptr %8, align 8
  ret double %26
}

; Function Attrs: mustprogress nounwind uwtable
define linkonce_odr hidden noundef double @_ZN6casadi12casadi_bilinIdEET_PKS1_PKxS3_S3_(ptr noundef %0, ptr noundef %1, ptr noundef %2, ptr noundef %3) #5 comdat {
  %5 = alloca ptr, align 8
  %6 = alloca ptr, align 8
  %7 = alloca ptr, align 8
  %8 = alloca ptr, align 8
  %9 = alloca i64, align 8
  %10 = alloca i64, align 8
  %11 = alloca i64, align 8
  %12 = alloca i64, align 8
  %13 = alloca ptr, align 8
  %14 = alloca ptr, align 8
  %15 = alloca double, align 8
  store ptr %0, ptr %5, align 8
  store ptr %1, ptr %6, align 8
  store ptr %2, ptr %7, align 8
  store ptr %3, ptr %8, align 8
  %16 = load ptr, ptr %6, align 8
  %17 = getelementptr inbounds i64, ptr %16, i64 1
  %18 = load i64, ptr %17, align 8
  store i64 %18, ptr %9, align 8
  %19 = load ptr, ptr %6, align 8
  %20 = getelementptr inbounds i64, ptr %19, i64 2
  store ptr %20, ptr %13, align 8
  %21 = load ptr, ptr %6, align 8
  %22 = getelementptr inbounds i64, ptr %21, i64 2
  %23 = load i64, ptr %9, align 8
  %24 = getelementptr inbounds i64, ptr %22, i64 %23
  %25 = getelementptr inbounds i64, ptr %24, i64 1
  store ptr %25, ptr %14, align 8
  store double 0.000000e+00, ptr %15, align 8
  store i64 0, ptr %10, align 8
  br label %26

26:                                               ; preds = %67, %4
  %27 = load i64, ptr %10, align 8
  %28 = load i64, ptr %9, align 8
  %29 = icmp slt i64 %27, %28
  br i1 %29, label %30, label %70

30:                                               ; preds = %26
  %31 = load ptr, ptr %13, align 8
  %32 = load i64, ptr %10, align 8
  %33 = getelementptr inbounds i64, ptr %31, i64 %32
  %34 = load i64, ptr %33, align 8
  store i64 %34, ptr %12, align 8
  br label %35

35:                                               ; preds = %63, %30
  %36 = load i64, ptr %12, align 8
  %37 = load ptr, ptr %13, align 8
  %38 = load i64, ptr %10, align 8
  %39 = add nsw i64 %38, 1
  %40 = getelementptr inbounds i64, ptr %37, i64 %39
  %41 = load i64, ptr %40, align 8
  %42 = icmp slt i64 %36, %41
  br i1 %42, label %43, label %66

43:                                               ; preds = %35
  %44 = load ptr, ptr %14, align 8
  %45 = load i64, ptr %12, align 8
  %46 = getelementptr inbounds i64, ptr %44, i64 %45
  %47 = load i64, ptr %46, align 8
  store i64 %47, ptr %11, align 8
  %48 = load ptr, ptr %7, align 8
  %49 = load i64, ptr %11, align 8
  %50 = getelementptr inbounds double, ptr %48, i64 %49
  %51 = load double, ptr %50, align 8
  %52 = load ptr, ptr %5, align 8
  %53 = load i64, ptr %12, align 8
  %54 = getelementptr inbounds double, ptr %52, i64 %53
  %55 = load double, ptr %54, align 8
  %56 = fmul double %51, %55
  %57 = load ptr, ptr %8, align 8
  %58 = load i64, ptr %10, align 8
  %59 = getelementptr inbounds double, ptr %57, i64 %58
  %60 = load double, ptr %59, align 8
  %61 = load double, ptr %15, align 8
  %62 = call double @llvm.fmuladd.f64(double %56, double %60, double %61)
  store double %62, ptr %15, align 8
  br label %63

63:                                               ; preds = %43
  %64 = load i64, ptr %12, align 8
  %65 = add nsw i64 %64, 1
  store i64 %65, ptr %12, align 8
  br label %35, !llvm.loop !4

66:                                               ; preds = %35
  br label %67

67:                                               ; preds = %66
  %68 = load i64, ptr %10, align 8
  %69 = add nsw i64 %68, 1
  store i64 %69, ptr %10, align 8
  br label %26, !llvm.loop !6

70:                                               ; preds = %26
  %71 = load double, ptr %15, align 8
  ret double %71
}

; Function Attrs: mustprogress uwtable
define noundef double @_ZNK6casadi17Feasiblesqpmethod8eval_m_kEPv(ptr noundef nonnull align 8 dereferenceable(2392) %0, ptr noundef %1) #4 align 2 {
  %3 = alloca double, align 8
  %4 = alloca ptr, align 8
  %5 = alloca ptr, align 8
  %6 = alloca ptr, align 8
  %7 = alloca ptr, align 8
  store ptr %0, ptr %4, align 8
  store ptr %1, ptr %5, align 8
  %8 = load ptr, ptr %4, align 8
  %9 = load ptr, ptr %5, align 8
  store ptr %9, ptr %6, align 8
  %10 = load ptr, ptr %6, align 8
  %11 = getelementptr inbounds %"struct.casadi::FeasiblesqpmethodMemory", ptr %10, i32 0, i32 1
  store ptr %11, ptr %7, align 8
  %12 = getelementptr inbounds %"class.casadi::Feasiblesqpmethod", ptr %8, i32 0, i32 5
  %13 = load i8, ptr %12, align 1
  %14 = trunc i8 %13 to i1
  br i1 %14, label %15, label %38

15:                                               ; preds = %2
  %16 = load ptr, ptr %7, align 8
  %17 = getelementptr inbounds %"struct.casadi::casadi_feasiblesqpmethod_data", ptr %16, i32 0, i32 17
  %18 = load ptr, ptr %17, align 8
  %19 = getelementptr inbounds %"class.casadi::Feasiblesqpmethod", ptr %8, i32 0, i32 18
  %20 = call noundef ptr @_ZNK6casadi8SparsitycvPKxEv(ptr noundef nonnull align 8 dereferenceable(8) %19)
  %21 = load ptr, ptr %7, align 8
  %22 = getelementptr inbounds %"struct.casadi::casadi_feasiblesqpmethod_data", ptr %21, i32 0, i32 6
  %23 = load ptr, ptr %22, align 8
  %24 = load ptr, ptr %7, align 8
  %25 = getelementptr inbounds %"struct.casadi::casadi_feasiblesqpmethod_data", ptr %24, i32 0, i32 6
  %26 = load ptr, ptr %25, align 8
  %27 = call noundef double @_ZN6casadi12casadi_bilinIdEET_PKS1_PKxS3_S3_(ptr noundef %18, ptr noundef %20, ptr noundef %23, ptr noundef %26)
  %28 = getelementptr inbounds %"class.casadi::Nlpsol", ptr %8, i32 0, i32 3
  %29 = load i64, ptr %28, align 8
  %30 = load ptr, ptr %7, align 8
  %31 = getelementptr inbounds %"struct.casadi::casadi_feasiblesqpmethod_data", ptr %30, i32 0, i32 3
  %32 = load ptr, ptr %31, align 8
  %33 = load ptr, ptr %7, align 8
  %34 = getelementptr inbounds %"struct.casadi::casadi_feasiblesqpmethod_data", ptr %33, i32 0, i32 6
  %35 = load ptr, ptr %34, align 8
  %36 = call noundef double @_ZN6casadi10casadi_dotIdEET_xPKS1_S3_(i64 noundef %29, ptr noundef %32, ptr noundef %35)
  %37 = call double @llvm.fmuladd.f64(double 5.000000e-01, double %27, double %36)
  store double %37, ptr %3, align 8
  br label %48

38:                                               ; preds = %2
  %39 = getelementptr inbounds %"class.casadi::Nlpsol", ptr %8, i32 0, i32 3
  %40 = load i64, ptr %39, align 8
  %41 = load ptr, ptr %7, align 8
  %42 = getelementptr inbounds %"struct.casadi::casadi_feasiblesqpmethod_data", ptr %41, i32 0, i32 3
  %43 = load ptr, ptr %42, align 8
  %44 = load ptr, ptr %7, align 8
  %45 = getelementptr inbounds %"struct.casadi::casadi_feasiblesqpmethod_data", ptr %44, i32 0, i32 6
  %46 = load ptr, ptr %45, align 8
  %47 = call noundef double @_ZN6casadi10casadi_dotIdEET_xPKS1_S3_(i64 noundef %40, ptr noundef %43, ptr noundef %46)
  store double %47, ptr %3, align 8
  br label %48

48:                                               ; preds = %38, %15
  %49 = load double, ptr %3, align 8
  ret double %49
}