; Function Attrs: mustprogress uwtable
define noundef double @_ZNK6casadi17Feasiblesqpmethod8eval_m_kEPv(ptr noundef nonnull align 8 dereferenceable(2392) %0, ptr nocapture noundef readonly %1) local_unnamed_addr #3 align 2 {
  %3 = getelementptr inbounds i8, ptr %0, i64 1977
  %4 = load i8, ptr %3, align 1
  %5 = and i8 %4, 1
  %.not = icmp eq i8 %5, 0
  br i1 %.not, label %48, label %6

6:                                                ; preds = %2
  %7 = getelementptr inbounds i8, ptr %1, i64 504
  %8 = load ptr, ptr %7, align 8
  %9 = getelementptr inbounds i8, ptr %0, i64 2048
  %10 = tail call noundef ptr @_ZNK6casadi8SparsitycvPKxEv(ptr noundef nonnull align 8 dereferenceable(8) %9)
  %11 = getelementptr inbounds i8, ptr %1, i64 416
  %12 = load ptr, ptr %11, align 8
  %13 = getelementptr inbounds i8, ptr %10, i64 8
  %14 = load i64, ptr %13, align 8
  %15 = getelementptr inbounds i8, ptr %10, i64 16
  %16 = getelementptr inbounds i64, ptr %15, i64 %14
  %17 = getelementptr inbounds i8, ptr %16, i64 8
  %18 = icmp sgt i64 %14, 0
  br i1 %18, label %.lr.ph29.preheader.i, label %_ZN6casadi12casadi_bilinIdEET_PKS1_PKxS3_S3_.exit

.lr.ph29.preheader.i:                             ; preds = %6
  %.pre.i = load i64, ptr %15, align 8
  br label %.lr.ph29.i

.loopexit.i:                                      ; preds = %26, %.lr.ph29.i
  %.1.lcssa.i = phi double [ %.028.i, %.lr.ph29.i ], [ %34, %26 ]
  %exitcond31.not.i = icmp eq i64 %20, %14
  br i1 %exitcond31.not.i, label %_ZN6casadi12casadi_bilinIdEET_PKS1_PKxS3_S3_.exit, label %.lr.ph29.i, !llvm.loop !54

.lr.ph29.i:                                       ; preds = %.loopexit.i, %.lr.ph29.preheader.i
  %19 = phi i64 [ %22, %.loopexit.i ], [ %.pre.i, %.lr.ph29.preheader.i ]
  %.028.i = phi double [ %.1.lcssa.i, %.loopexit.i ], [ 0.000000e+00, %.lr.ph29.preheader.i ]
  %.02227.i = phi i64 [ %20, %.loopexit.i ], [ 0, %.lr.ph29.preheader.i ]
  %20 = add nuw nsw i64 %.02227.i, 1
  %21 = getelementptr inbounds i64, ptr %15, i64 %20
  %22 = load i64, ptr %21, align 8
  %23 = icmp slt i64 %19, %22
  br i1 %23, label %.lr.ph.i, label %.loopexit.i

.lr.ph.i:                                         ; preds = %.lr.ph29.i
  %24 = getelementptr inbounds double, ptr %12, i64 %.02227.i
  %25 = load double, ptr %24, align 8
  br label %26

26:                                               ; preds = %26, %.lr.ph.i
  %.125.i = phi double [ %.028.i, %.lr.ph.i ], [ %34, %26 ]
  %.02324.i = phi i64 [ %19, %.lr.ph.i ], [ %35, %26 ]
  %27 = getelementptr inbounds i64, ptr %17, i64 %.02324.i
  %28 = load i64, ptr %27, align 8
  %29 = getelementptr inbounds double, ptr %12, i64 %28
  %30 = load double, ptr %29, align 8
  %31 = getelementptr inbounds double, ptr %8, i64 %.02324.i
  %32 = load double, ptr %31, align 8
  %33 = fmul double %30, %32
  %34 = tail call double @llvm.fmuladd.f64(double %33, double %25, double %.125.i)
  %35 = add nsw i64 %.02324.i, 1
  %exitcond.not.i = icmp eq i64 %35, %22
  br i1 %exitcond.not.i, label %.loopexit.i, label %26, !llvm.loop !55

_ZN6casadi12casadi_bilinIdEET_PKS1_PKxS3_S3_.exit: ; preds = %.loopexit.i, %6
  %.0.lcssa.i = phi double [ 0.000000e+00, %6 ], [ %.1.lcssa.i, %.loopexit.i ]
  %36 = getelementptr inbounds i8, ptr %0, i64 1640
  %37 = load i64, ptr %36, align 8
  %38 = icmp sgt i64 %37, 0
  br i1 %38, label %.lr.ph.i12.preheader, label %_ZN6casadi10casadi_dotIdEET_xPKS1_S3_.exit

.lr.ph.i12.preheader:                             ; preds = %_ZN6casadi12casadi_bilinIdEET_PKS1_PKxS3_S3_.exit
  %39 = getelementptr inbounds i8, ptr %1, i64 392
  %40 = load ptr, ptr %39, align 8
  br label %.lr.ph.i12

.lr.ph.i12:                                       ; preds = %.lr.ph.i12.preheader, %.lr.ph.i12
  %.012.i = phi double [ %45, %.lr.ph.i12 ], [ 0.000000e+00, %.lr.ph.i12.preheader ]
  %.0611.i = phi i64 [ %46, %.lr.ph.i12 ], [ 0, %.lr.ph.i12.preheader ]
  %.0710.i = phi ptr [ %43, %.lr.ph.i12 ], [ %12, %.lr.ph.i12.preheader ]
  %.089.i = phi ptr [ %41, %.lr.ph.i12 ], [ %40, %.lr.ph.i12.preheader ]
  %41 = getelementptr inbounds i8, ptr %.089.i, i64 8
  %42 = load double, ptr %.089.i, align 8
  %43 = getelementptr inbounds i8, ptr %.0710.i, i64 8
  %44 = load double, ptr %.0710.i, align 8
  %45 = tail call double @llvm.fmuladd.f64(double %42, double %44, double %.012.i)
  %46 = add nuw nsw i64 %.0611.i, 1
  %exitcond.not.i13 = icmp eq i64 %46, %37
  br i1 %exitcond.not.i13, label %_ZN6casadi10casadi_dotIdEET_xPKS1_S3_.exit, label %.lr.ph.i12, !llvm.loop !56

_ZN6casadi10casadi_dotIdEET_xPKS1_S3_.exit:       ; preds = %.lr.ph.i12, %_ZN6casadi12casadi_bilinIdEET_PKS1_PKxS3_S3_.exit
  %.0.lcssa.i11 = phi double [ 0.000000e+00, %_ZN6casadi12casadi_bilinIdEET_PKS1_PKxS3_S3_.exit ], [ %45, %.lr.ph.i12 ]
  %47 = tail call double @llvm.fmuladd.f64(double %.0.lcssa.i, double 5.000000e-01, double %.0.lcssa.i11)
  br label %_ZN6casadi10casadi_dotIdEET_xPKS1_S3_.exit21

48:                                               ; preds = %2
  %49 = getelementptr inbounds i8, ptr %0, i64 1640
  %50 = load i64, ptr %49, align 8
  %51 = icmp sgt i64 %50, 0
  br i1 %51, label %.lr.ph.i15.preheader, label %_ZN6casadi10casadi_dotIdEET_xPKS1_S3_.exit21

.lr.ph.i15.preheader:                             ; preds = %48
  %52 = getelementptr inbounds i8, ptr %1, i64 416
  %53 = load ptr, ptr %52, align 8
  %54 = getelementptr inbounds i8, ptr %1, i64 392
  %55 = load ptr, ptr %54, align 8
  br label %.lr.ph.i15

.lr.ph.i15:                                       ; preds = %.lr.ph.i15.preheader, %.lr.ph.i15
  %.012.i16 = phi double [ %60, %.lr.ph.i15 ], [ 0.000000e+00, %.lr.ph.i15.preheader ]
  %.0611.i17 = phi i64 [ %61, %.lr.ph.i15 ], [ 0, %.lr.ph.i15.preheader ]
  %.0710.i18 = phi ptr [ %58, %.lr.ph.i15 ], [ %53, %.lr.ph.i15.preheader ]
  %.089.i19 = phi ptr [ %56, %.lr.ph.i15 ], [ %55, %.lr.ph.i15.preheader ]
  %56 = getelementptr inbounds i8, ptr %.089.i19, i64 8
  %57 = load double, ptr %.089.i19, align 8
  %58 = getelementptr inbounds i8, ptr %.0710.i18, i64 8
  %59 = load double, ptr %.0710.i18, align 8
  %60 = tail call double @llvm.fmuladd.f64(double %57, double %59, double %.012.i16)
  %61 = add nuw nsw i64 %.0611.i17, 1
  %exitcond.not.i20 = icmp eq i64 %61, %50
  br i1 %exitcond.not.i20, label %_ZN6casadi10casadi_dotIdEET_xPKS1_S3_.exit21, label %.lr.ph.i15, !llvm.loop !56

_ZN6casadi10casadi_dotIdEET_xPKS1_S3_.exit21:     ; preds = %.lr.ph.i15, %48, %_ZN6casadi10casadi_dotIdEET_xPKS1_S3_.exit
  %.0 = phi double [ %47, %_ZN6casadi10casadi_dotIdEET_xPKS1_S3_.exit ], [ 0.000000e+00, %48 ], [ %60, %.lr.ph.i15 ]
  ret double %.0
}